; ModuleID = '20/281.c'
source_filename = "20/281.c"
target datalayout = "e-m:e-p270:32:32-p271:32:32-p272:64:64-i64:64-f80:128-n8:16:32:64-S128"
target triple = "x86_64-pc-linux-gnu"

@.str = private unnamed_addr constant [3 x i8] c"%c\00", align 1
@.str.1 = private unnamed_addr constant [2 x i8] c"\0A\00", align 1
@.str.2 = private unnamed_addr constant [6 x i8] c"%s %s\00", align 1

; Function Attrs: noinline nounwind uwtable
define dso_local i8* @findmax(i8* %0) #0 {
  %2 = alloca i8*, align 8
  %3 = alloca i8*, align 8
  store i8* %0, i8** %2, align 8
  %4 = load i8*, i8** %2, align 8
  store i8* %4, i8** %3, align 8
  br label %5

5:                                                ; preds = %21, %1
  %6 = load i8*, i8** %2, align 8
  %7 = load i8, i8* %6, align 1
  %8 = sext i8 %7 to i32
  %9 = icmp ne i32 %8, 0
  br i1 %9, label %10, label %24

10:                                               ; preds = %5
  %11 = load i8*, i8** %2, align 8
  %12 = load i8, i8* %11, align 1
  %13 = sext i8 %12 to i32
  %14 = load i8*, i8** %3, align 8
  %15 = load i8, i8* %14, align 1
  %16 = sext i8 %15 to i32
  %17 = icmp sgt i32 %13, %16
  br i1 %17, label %18, label %20

18:                                               ; preds = %10
  %19 = load i8*, i8** %2, align 8
  store i8* %19, i8** %3, align 8
  br label %20

20:                                               ; preds = %18, %10
  br label %21

21:                                               ; preds = %20
  %22 = load i8*, i8** %2, align 8
  %23 = getelementptr inbounds i8, i8* %22, i32 1
  store i8* %23, i8** %2, align 8
  br label %5

24:                                               ; preds = %5
  %25 = load i8*, i8** %3, align 8
  ret i8* %25
}

; Function Attrs: noinline nounwind uwtable
define dso_local void @insert(i8* %0, i8* %1) #0 {
  %3 = alloca i8*, align 8
  %4 = alloca i8*, align 8
  %5 = alloca i8*, align 8
  %6 = alloca i8*, align 8
  %7 = alloca i8*, align 8
  %8 = alloca i8*, align 8
  store i8* %0, i8** %3, align 8
  store i8* %1, i8** %4, align 8
  %9 = call noalias i8* @malloc(i64 1000) #3
  store i8* %9, i8** %5, align 8
  %10 = load i8*, i8** %5, align 8
  store i8* %10, i8** %6, align 8
  %11 = load i8*, i8** %3, align 8
  store i8* %11, i8** %7, align 8
  br label %12

12:                                               ; preds = %25, %2
  %13 = load i8*, i8** %7, align 8
  %14 = load i8, i8* %13, align 1
  %15 = sext i8 %14 to i32
  %16 = load i8*, i8** %3, align 8
  %17 = call i8* @findmax(i8* %16)
  %18 = load i8, i8* %17, align 1
  %19 = sext i8 %18 to i32
  %20 = icmp ne i32 %15, %19
  br i1 %20, label %21, label %30

21:                                               ; preds = %12
  %22 = load i8*, i8** %7, align 8
  %23 = load i8, i8* %22, align 1
  %24 = load i8*, i8** %5, align 8
  store i8 %23, i8* %24, align 1
  br label %25

25:                                               ; preds = %21
  %26 = load i8*, i8** %7, align 8
  %27 = getelementptr inbounds i8, i8* %26, i32 1
  store i8* %27, i8** %7, align 8
  %28 = load i8*, i8** %5, align 8
  %29 = getelementptr inbounds i8, i8* %28, i32 1
  store i8* %29, i8** %5, align 8
  br label %12

30:                                               ; preds = %12
  %31 = load i8*, i8** %7, align 8
  store i8* %31, i8** %8, align 8
  %32 = load i8*, i8** %7, align 8
  %33 = load i8, i8* %32, align 1
  %34 = load i8*, i8** %5, align 8
  store i8 %33, i8* %34, align 1
  %35 = load i8*, i8** %5, align 8
  %36 = getelementptr inbounds i8, i8* %35, i32 1
  store i8* %36, i8** %5, align 8
  %37 = load i8*, i8** %4, align 8
  store i8* %37, i8** %7, align 8
  br label %38

38:                                               ; preds = %47, %30
  %39 = load i8*, i8** %4, align 8
  %40 = load i8, i8* %39, align 1
  %41 = sext i8 %40 to i32
  %42 = icmp ne i32 %41, 0
  br i1 %42, label %43, label %52

43:                                               ; preds = %38
  %44 = load i8*, i8** %4, align 8
  %45 = load i8, i8* %44, align 1
  %46 = load i8*, i8** %5, align 8
  store i8 %45, i8* %46, align 1
  br label %47

47:                                               ; preds = %43
  %48 = load i8*, i8** %5, align 8
  %49 = getelementptr inbounds i8, i8* %48, i32 1
  store i8* %49, i8** %5, align 8
  %50 = load i8*, i8** %4, align 8
  %51 = getelementptr inbounds i8, i8* %50, i32 1
  store i8* %51, i8** %4, align 8
  br label %38

52:                                               ; preds = %38
  %53 = load i8*, i8** %8, align 8
  %54 = getelementptr inbounds i8, i8* %53, i64 1
  store i8* %54, i8** %7, align 8
  br label %55

55:                                               ; preds = %64, %52
  %56 = load i8*, i8** %7, align 8
  %57 = load i8, i8* %56, align 1
  %58 = sext i8 %57 to i32
  %59 = icmp ne i32 %58, 0
  br i1 %59, label %60, label %69

60:                                               ; preds = %55
  %61 = load i8*, i8** %7, align 8
  %62 = load i8, i8* %61, align 1
  %63 = load i8*, i8** %5, align 8
  store i8 %62, i8* %63, align 1
  br label %64

64:                                               ; preds = %60
  %65 = load i8*, i8** %5, align 8
  %66 = getelementptr inbounds i8, i8* %65, i32 1
  store i8* %66, i8** %5, align 8
  %67 = load i8*, i8** %7, align 8
  %68 = getelementptr inbounds i8, i8* %67, i32 1
  store i8* %68, i8** %7, align 8
  br label %55

69:                                               ; preds = %55
  %70 = load i8*, i8** %5, align 8
  store i8 0, i8* %70, align 1
  br label %71

71:                                               ; preds = %76, %69
  %72 = load i8*, i8** %6, align 8
  %73 = load i8, i8* %72, align 1
  %74 = sext i8 %73 to i32
  %75 = icmp ne i32 %74, 0
  br i1 %75, label %76, label %83

76:                                               ; preds = %71
  %77 = load i8*, i8** %6, align 8
  %78 = load i8, i8* %77, align 1
  %79 = sext i8 %78 to i32
  %80 = call i32 (i8*, ...) @printf(i8* getelementptr inbounds ([3 x i8], [3 x i8]* @.str, i64 0, i64 0), i32 %79)
  %81 = load i8*, i8** %6, align 8
  %82 = getelementptr inbounds i8, i8* %81, i32 1
  store i8* %82, i8** %6, align 8
  br label %71

83:                                               ; preds = %71
  %84 = call i32 (i8*, ...) @printf(i8* getelementptr inbounds ([2 x i8], [2 x i8]* @.str.1, i64 0, i64 0))
  ret void
}

; Function Attrs: nounwind
declare dso_local noalias i8* @malloc(i64) #1

declare dso_local i32 @printf(i8*, ...) #2

; Function Attrs: noinline nounwind uwtable
define dso_local void @main() #0 {
  %1 = alloca [10 x i8], align 1
  %2 = alloca [3 x i8], align 1
  %3 = alloca [13 x i8], align 1
  %4 = alloca i8*, align 8
  %5 = alloca i8*, align 8
  %6 = alloca i8*, align 8
  %7 = getelementptr inbounds [10 x i8], [10 x i8]* %1, i64 0, i64 0
  store i8* %7, i8** %4, align 8
  %8 = getelementptr inbounds [3 x i8], [3 x i8]* %2, i64 0, i64 0
  store i8* %8, i8** %5, align 8
  %9 = getelementptr inbounds [13 x i8], [13 x i8]* %3, i64 0, i64 0
  store i8* %9, i8** %6, align 8
  br label %10

10:                                               ; preds = %15, %0
  %11 = getelementptr inbounds [10 x i8], [10 x i8]* %1, i64 0, i64 0
  %12 = getelementptr inbounds [3 x i8], [3 x i8]* %2, i64 0, i64 0
  %13 = call i32 (i8*, ...) @__isoc99_scanf(i8* getelementptr inbounds ([6 x i8], [6 x i8]* @.str.2, i64 0, i64 0), i8* %11, i8* %12)
  %14 = icmp ne i32 %13, -1
  br i1 %14, label %15, label %18

15:                                               ; preds = %10
  %16 = load i8*, i8** %4, align 8
  %17 = load i8*, i8** %5, align 8
  call void @insert(i8* %16, i8* %17)
  br label %10

18:                                               ; preds = %10
  ret void
}

declare dso_local i32 @__isoc99_scanf(i8*, ...) #2


!llvm.module.flags = !{!0}
!llvm.ident = !{!1}

!0 = !{i32 1, !"wchar_size", i32 4}
!1 = !{!"clang version 10.0.0-4ubuntu1 "}
